target datalayout = "e-m:e-p270:32:32-p271:32:32-p272:64:64-i64:64-i128:128-f80:128-n8:16:32:64-S128"
target triple = "x86_64-pc-linux-gnu"

%struct.FormData_pg_class = type { i32, %struct.nameData, i32, i32, i32, i32, i32, i32, i32, i32, float, i32, i32, i8, i8, i8, i8, i16, i16, i8, i8, i8, i8, i8, i8, i8, i8, i32, i32, i32 }
%struct.nameData = type { [64 x i8] }
%struct.HeapTupleData = type { i32, %struct.ItemPointerData, i32, ptr }
%struct.ItemPointerData = type { %struct.BlockIdData, i16 }
%struct.BlockIdData = type { i16, i16 }
%struct.HeapTupleHeaderData = type { %union.anon, %struct.ItemPointerData, i16, i16, i8, [0 x i8] }
%union.anon = type { %struct.HeapTupleFields }
%struct.HeapTupleFields = type { i32, i32, %union.anon.0 }
%union.anon.0 = type { i32 }

@MyDatabaseId = external global i32, align 4
@.str.1 = private unnamed_addr constant [8 x i8] c"inval.c\00", align 1
@.str.7 = private unnamed_addr constant [36 x i8] c"cache lookup failed for relation %u\00", align 1
@__func__.CacheInvalidateRelcacheByRelid = private unnamed_addr constant [31 x i8] c"CacheInvalidateRelcacheByRelid\00", align 1

; Function Attrs: inlinehint nounwind uwtable
define internal ptr @GETSTRUCT(ptr noundef %0) #5 {
  %2 = alloca ptr, align 8
  store ptr %0, ptr %2, align 8
  %3 = load ptr, ptr %2, align 8
  %4 = getelementptr inbounds nuw %struct.HeapTupleData, ptr %3, i32 0, i32 3
  %5 = load ptr, ptr %4, align 8
  %6 = load ptr, ptr %2, align 8
  %7 = getelementptr inbounds nuw %struct.HeapTupleData, ptr %6, i32 0, i32 3
  %8 = load ptr, ptr %7, align 8
  %9 = getelementptr inbounds nuw %struct.HeapTupleHeaderData, ptr %8, i32 0, i32 4
  %10 = load i8, ptr %9, align 2
  %11 = zext i8 %10 to i32
  %12 = sext i32 %11 to i64
  %13 = getelementptr inbounds i8, ptr %5, i64 %12
  ret ptr %13
}

; Function Attrs: nounwind uwtable
define dso_local void @CacheInvalidateRelcacheByTuple(ptr noundef %0) #0 {
  %2 = alloca ptr, align 8
  %3 = alloca ptr, align 8
  %4 = alloca i32, align 4
  %5 = alloca i32, align 4
  store ptr %0, ptr %2, align 8
  call void @llvm.lifetime.start.p0(i64 8, ptr %3) #7
  %6 = load ptr, ptr %2, align 8
  %7 = call ptr @GETSTRUCT(ptr noundef %6)
  store ptr %7, ptr %3, align 8
  call void @llvm.lifetime.start.p0(i64 4, ptr %4) #7
  call void @llvm.lifetime.start.p0(i64 4, ptr %5) #7
  %8 = load ptr, ptr %3, align 8
  %9 = getelementptr inbounds nuw %struct.FormData_pg_class, ptr %8, i32 0, i32 0
  %10 = load i32, ptr %9, align 4
  store i32 %10, ptr %5, align 4
  %11 = load ptr, ptr %3, align 8
  %12 = getelementptr inbounds nuw %struct.FormData_pg_class, ptr %11, i32 0, i32 14
  %13 = load i8, ptr %12, align 1, !range !4, !noundef !5
  %14 = trunc i8 %13 to i1
  br i1 %14, label %15, label %16

15:                                               ; preds = %1
  store i32 0, ptr %4, align 4
  br label %18

16:                                               ; preds = %1
  %17 = load i32, ptr @MyDatabaseId, align 4
  store i32 %17, ptr %4, align 4
  br label %18

18:                                               ; preds = %16, %15
  %19 = call ptr @PrepareInvalidationState()
  %20 = load i32, ptr %4, align 4
  %21 = load i32, ptr %5, align 4
  call void @RegisterRelcacheInvalidation(ptr noundef %19, i32 noundef %20, i32 noundef %21)
  call void @llvm.lifetime.end.p0(i64 4, ptr %5) #7
  call void @llvm.lifetime.end.p0(i64 4, ptr %4) #7
  call void @llvm.lifetime.end.p0(i64 8, ptr %3) #7
  ret void
}

; Function Attrs: inlinehint nounwind uwtable
define internal i64 @ObjectIdGetDatum(i32 noundef %0) #5 {
  %2 = alloca i32, align 4
  store i32 %0, ptr %2, align 4
  %3 = load i32, ptr %2, align 4
  %4 = zext i32 %3 to i64
  ret i64 %4
}

; Function Attrs: nounwind uwtable
define dso_local void @CacheInvalidateRelcacheByRelid(i32 noundef %0) #0 {
  %2 = alloca i32, align 4
  %3 = alloca ptr, align 8
  store i32 %0, ptr %2, align 4
  call void @llvm.lifetime.start.p0(i64 8, ptr %3) #7
  %4 = load i32, ptr %2, align 4
  %5 = call i64 @ObjectIdGetDatum(i32 noundef %4)
  %6 = call ptr @SearchSysCache1(i32 noundef 57, i64 noundef %5)
  store ptr %6, ptr %3, align 8
  %7 = load ptr, ptr %3, align 8
  %8 = icmp ne ptr %7, null
  br i1 %8, label %21, label %9

9:                                                ; preds = %1
  br label %10

10:                                               ; preds = %9
  br i1 true, label %11, label %13

11:                                               ; preds = %10
  %12 = call zeroext i1 @errstart_cold(i32 noundef 21, ptr noundef null) #8
  br i1 %12, label %15, label %18

13:                                               ; preds = %10
  %14 = call zeroext i1 @errstart(i32 noundef 21, ptr noundef null)
  br i1 %14, label %15, label %18

15:                                               ; preds = %13, %11
  %16 = load i32, ptr %2, align 4
  %17 = call i32 (ptr, ...) @errmsg_internal(ptr noundef @.str.7, i32 noundef %16)
  call void @errfinish(ptr noundef @.str.1, i32 noundef 1618, ptr noundef @__func__.CacheInvalidateRelcacheByRelid)
  br label %18

18:                                               ; preds = %15, %13, %11
  unreachable

19:                                               ; No predecessors!
  br label %20

20:                                               ; preds = %19
  br label %21

21:                                               ; preds = %20, %1
  %22 = load ptr, ptr %3, align 8
  call void @CacheInvalidateRelcacheByTuple(ptr noundef %22)
  %23 = load ptr, ptr %3, align 8
  call void @ReleaseSysCache(ptr noundef %23)
  call void @llvm.lifetime.end.p0(i64 8, ptr %3) #7
  ret void
}