; Function Attrs: nounwind uwtable
define dso_local void @CacheInvalidateRelcacheByRelid(i32 noundef %0) local_unnamed_addr #0 {
  %2 = zext i32 %0 to i64
  %3 = tail call ptr @SearchSysCache1(i32 noundef 57, i64 noundef %2) #7
  %.not = icmp eq ptr %3, null
  br i1 %.not, label %4, label %7

4:                                                ; preds = %1
  %5 = tail call zeroext i1 @errstart_cold(i32 noundef 21, ptr noundef null) #8
  tail call void @llvm.assume(i1 %5)
  %6 = tail call i32 (ptr, ...) @errmsg_internal(ptr noundef nonnull @.str.7, i32 noundef %0) #7
  tail call void @errfinish(ptr noundef nonnull @.str.1, i32 noundef 1618, ptr noundef nonnull @__func__.CacheInvalidateRelcacheByRelid) #7
  unreachable

7:                                                ; preds = %1
  %8 = getelementptr i8, ptr %3, i64 16
  %.val.i = load ptr, ptr %8, align 8
  %9 = getelementptr inbounds nuw i8, ptr %.val.i, i64 22
  %10 = load i8, ptr %9, align 2
  %11 = zext i8 %10 to i64
  %12 = getelementptr inbounds nuw i8, ptr %.val.i, i64 %11
  %13 = load i32, ptr %12, align 4
  %14 = getelementptr inbounds nuw i8, ptr %12, i64 113
  %15 = load i8, ptr %14, align 1, !range !11, !noundef !12
  %16 = trunc nuw i8 %15 to i1
  %17 = load i32, ptr @MyDatabaseId, align 4
  %.0.i = select i1 %16, i32 0, i32 %17
  %18 = tail call ptr @PrepareInvalidationState()
  tail call fastcc void @RegisterRelcacheInvalidation(ptr noundef %18, i32 noundef %.0.i, i32 noundef %13)
  tail call void @ReleaseSysCache(ptr noundef nonnull %3) #7
  ret void
}